target datalayout = "e-m:e-p270:32:32-p271:32:32-p272:64:64-i64:64-i128:128-f80:128-n8:16:32:64-S128"
target triple = "x86_64-pc-linux-gnu"

%"class.Ipopt::ReferencedObject.base" = type <{ ptr, i32 }>
%"class.Ipopt::SmartPtr" = type { ptr }
%"class.Ipopt::RegisteredOptions" = type { %"class.Ipopt::ReferencedObject.base", %"class.std::map", %"class.std::map.16", i32, %"class.Ipopt::SmartPtr" }
%"class.std::map" = type { %"class.std::_Rb_tree" }
%"class.std::_Rb_tree" = type { %"struct.std::_Rb_tree<std::__cxx11::basic_string<char>, std::pair<const std::__cxx11::basic_string<char>, Ipopt::SmartPtr<Ipopt::RegisteredOption>>, std::_Select1st<std::pair<const std::__cxx11::basic_string<char>, Ipopt::SmartPtr<Ipopt::RegisteredOption>>>, std::less<std::__cxx11::basic_string<char>>>::_Rb_tree_impl" }
%"struct.std::_Rb_tree<std::__cxx11::basic_string<char>, std::pair<const std::__cxx11::basic_string<char>, Ipopt::SmartPtr<Ipopt::RegisteredOption>>, std::_Select1st<std::pair<const std::__cxx11::basic_string<char>, Ipopt::SmartPtr<Ipopt::RegisteredOption>>>, std::less<std::__cxx11::basic_string<char>>>::_Rb_tree_impl" = type { [8 x i8], %"struct.std::_Rb_tree_header" }
%"struct.std::_Rb_tree_header" = type { %"struct.std::_Rb_tree_node_base", i64 }
%"struct.std::_Rb_tree_node_base" = type { i32, ptr, ptr, ptr }
%"class.std::map.16" = type { %"class.std::_Rb_tree.17" }
%"class.std::_Rb_tree.17" = type { %"struct.std::_Rb_tree<std::__cxx11::basic_string<char>, std::pair<const std::__cxx11::basic_string<char>, Ipopt::SmartPtr<Ipopt::RegisteredCategory>>, std::_Select1st<std::pair<const std::__cxx11::basic_string<char>, Ipopt::SmartPtr<Ipopt::RegisteredCategory>>>, std::less<std::__cxx11::basic_string<char>>>::_Rb_tree_impl" }
%"struct.std::_Rb_tree<std::__cxx11::basic_string<char>, std::pair<const std::__cxx11::basic_string<char>, Ipopt::SmartPtr<Ipopt::RegisteredCategory>>, std::_Select1st<std::pair<const std::__cxx11::basic_string<char>, Ipopt::SmartPtr<Ipopt::RegisteredCategory>>>, std::less<std::__cxx11::basic_string<char>>>::_Rb_tree_impl" = type { [8 x i8], %"struct.std::_Rb_tree_header" }
%"class.Ipopt::SmartPtr.21" = type { ptr }
%"class.Ipopt::ReferencedObject" = type <{ ptr, i32, [4 x i8] }>

; Function Attrs: inlinehint mustprogress nounwind uwtable
define linkonce_odr noundef i32 @_ZNK5Ipopt16ReferencedObject14ReferenceCountEv(ptr noundef nonnull align 8 dereferenceable(12) %0) #7 comdat align 2 {
  %2 = alloca ptr, align 8
  store ptr %0, ptr %2, align 8, !tbaa !200
  %3 = load ptr, ptr %2, align 8
  %4 = getelementptr inbounds nuw %"class.Ipopt::ReferencedObject", ptr %3, i32 0, i32 1
  %5 = load i32, ptr %4, align 8, !tbaa !202
  ret i32 %5
}

; Function Attrs: inlinehint mustprogress nounwind uwtable
define linkonce_odr void @_ZNK5Ipopt16ReferencedObject10ReleaseRefEPKNS_10ReferencerE(ptr noundef nonnull align 8 dereferenceable(12) %0, ptr noundef %1) #7 comdat align 2 {
  %3 = alloca ptr, align 8
  %4 = alloca ptr, align 8
  store ptr %0, ptr %3, align 8, !tbaa !200
  store ptr %1, ptr %4, align 8, !tbaa !221
  %5 = load ptr, ptr %3, align 8
  %6 = getelementptr inbounds nuw %"class.Ipopt::ReferencedObject", ptr %5, i32 0, i32 1
  %7 = load i32, ptr %6, align 8, !tbaa !202
  %8 = add nsw i32 %7, -1
  store i32 %8, ptr %6, align 8, !tbaa !202
  ret void
}

; Function Attrs: inlinehint mustprogress nounwind uwtable
define linkonce_odr void @_ZNK5Ipopt16ReferencedObject6AddRefEPKNS_10ReferencerE(ptr noundef nonnull align 8 dereferenceable(12) %0, ptr noundef %1) #7 comdat align 2 {
  %3 = alloca ptr, align 8
  %4 = alloca ptr, align 8
  store ptr %0, ptr %3, align 8, !tbaa !200
  store ptr %1, ptr %4, align 8, !tbaa !221
  %5 = load ptr, ptr %3, align 8
  %6 = getelementptr inbounds nuw %"class.Ipopt::ReferencedObject", ptr %5, i32 0, i32 1
  %7 = load i32, ptr %6, align 8, !tbaa !202
  %8 = add nsw i32 %7, 1
  store i32 %8, ptr %6, align 8, !tbaa !202
  ret void
}

; Function Attrs: mustprogress nounwind uwtable
define linkonce_odr void @_ZN5Ipopt8SmartPtrINS_16RegisteredOptionEE15ReleasePointer_Ev(ptr noundef nonnull align 8 dereferenceable(8) %0) #6 comdat align 2 {
  %2 = alloca ptr, align 8
  store ptr %0, ptr %2, align 8, !tbaa !105
  %3 = load ptr, ptr %2, align 8
  %4 = getelementptr inbounds nuw %"class.Ipopt::SmartPtr.21", ptr %3, i32 0, i32 0
  %5 = load ptr, ptr %4, align 8, !tbaa !113
  %6 = icmp ne ptr %5, null
  br i1 %6, label %7, label %25

7:                                                ; preds = %1
  %8 = getelementptr inbounds nuw %"class.Ipopt::SmartPtr.21", ptr %3, i32 0, i32 0
  %9 = load ptr, ptr %8, align 8, !tbaa !113
  call void @_ZNK5Ipopt16ReferencedObject10ReleaseRefEPKNS_10ReferencerE(ptr noundef nonnull align 8 dereferenceable(12) %9, ptr noundef %3)
  %10 = getelementptr inbounds nuw %"class.Ipopt::SmartPtr.21", ptr %3, i32 0, i32 0
  %11 = load ptr, ptr %10, align 8, !tbaa !113
  %12 = call noundef i32 @_ZNK5Ipopt16ReferencedObject14ReferenceCountEv(ptr noundef nonnull align 8 dereferenceable(12) %11)
  %13 = icmp eq i32 %12, 0
  br i1 %13, label %14, label %24

14:                                               ; preds = %7
  %15 = getelementptr inbounds nuw %"class.Ipopt::SmartPtr.21", ptr %3, i32 0, i32 0
  %16 = load ptr, ptr %15, align 8, !tbaa !113
  %17 = icmp eq ptr %16, null
  br i1 %17, label %22, label %18

18:                                               ; preds = %14
  %19 = load ptr, ptr %16, align 8, !tbaa !31
  %20 = getelementptr inbounds ptr, ptr %19, i64 1
  %21 = load ptr, ptr %20, align 8
  call void %21(ptr noundef nonnull align 8 dereferenceable(220) %16) #3
  br label %22

22:                                               ; preds = %18, %14
  %23 = getelementptr inbounds nuw %"class.Ipopt::SmartPtr.21", ptr %3, i32 0, i32 0
  store ptr null, ptr %23, align 8, !tbaa !113
  br label %24

24:                                               ; preds = %22, %7
  br label %25

25:                                               ; preds = %24, %1
  ret void
}

; Function Attrs: mustprogress uwtable
define linkonce_odr noundef nonnull align 8 dereferenceable(8) ptr @_ZN5Ipopt8SmartPtrINS_16RegisteredOptionEE14SetFromRawPtr_EPS1_(ptr noundef nonnull align 8 dereferenceable(8) %0, ptr noundef %1) #4 comdat align 2 {
  %3 = alloca ptr, align 8
  %4 = alloca ptr, align 8
  store ptr %0, ptr %3, align 8, !tbaa !105
  store ptr %1, ptr %4, align 8, !tbaa !3
  %5 = load ptr, ptr %3, align 8
  %6 = load ptr, ptr %4, align 8, !tbaa !3
  %7 = icmp ne ptr %6, null
  br i1 %7, label %8, label %10

8:                                                ; preds = %2
  %9 = load ptr, ptr %4, align 8, !tbaa !3
  call void @_ZNK5Ipopt16ReferencedObject6AddRefEPKNS_10ReferencerE(ptr noundef nonnull align 8 dereferenceable(12) %9, ptr noundef %5)
  br label %10

10:                                               ; preds = %8, %2
  call void @_ZN5Ipopt8SmartPtrINS_16RegisteredOptionEE15ReleasePointer_Ev(ptr noundef nonnull align 8 dereferenceable(8) %5)
  %11 = load ptr, ptr %4, align 8, !tbaa !3
  %12 = getelementptr inbounds nuw %"class.Ipopt::SmartPtr.21", ptr %5, i32 0, i32 0
  store ptr %11, ptr %12, align 8, !tbaa !113
  ret ptr %5
}

; Function Attrs: mustprogress nounwind uwtable
define linkonce_odr void @_ZN5Ipopt8SmartPtrINS_16RegisteredOptionEED2Ev(ptr noundef nonnull align 8 dereferenceable(8) %0) unnamed_addr #6 comdat align 2 {
  %2 = alloca ptr, align 8
  store ptr %0, ptr %2, align 8, !tbaa !105
  %3 = load ptr, ptr %2, align 8
  call void @_ZN5Ipopt8SmartPtrINS_16RegisteredOptionEE15ReleasePointer_Ev(ptr noundef nonnull align 8 dereferenceable(8) %3)
  ret void
}

; Function Attrs: mustprogress nounwind uwtable
define linkonce_odr noundef ptr @_ZNK5Ipopt8SmartPtrINS_16RegisteredOptionEEptEv(ptr noundef nonnull align 8 dereferenceable(8) %0) #6 comdat align 2 {
  %2 = alloca ptr, align 8
  store ptr %0, ptr %2, align 8, !tbaa !105
  %3 = load ptr, ptr %2, align 8
  %4 = getelementptr inbounds nuw %"class.Ipopt::SmartPtr.21", ptr %3, i32 0, i32 0
  %5 = load ptr, ptr %4, align 8, !tbaa !113
  ret ptr %5
}

; Function Attrs: mustprogress uwtable
define linkonce_odr void @_ZN5Ipopt8SmartPtrINS_16RegisteredOptionEEC2EPS1_(ptr noundef nonnull align 8 dereferenceable(8) %0, ptr noundef %1) unnamed_addr #4 comdat align 2 {
  %3 = alloca ptr, align 8
  %4 = alloca ptr, align 8
  store ptr %0, ptr %3, align 8, !tbaa !105
  store ptr %1, ptr %4, align 8, !tbaa !3
  %5 = load ptr, ptr %3, align 8
  %6 = getelementptr inbounds nuw %"class.Ipopt::SmartPtr.21", ptr %5, i32 0, i32 0
  store ptr null, ptr %6, align 8, !tbaa !113
  %7 = load ptr, ptr %4, align 8, !tbaa !3
  %8 = call noundef nonnull align 8 dereferenceable(8) ptr @_ZN5Ipopt8SmartPtrINS_16RegisteredOptionEE14SetFromRawPtr_EPS1_(ptr noundef nonnull align 8 dereferenceable(8) %5, ptr noundef %7)
  ret void
}

; Function Attrs: mustprogress uwtable
define void @_ZN5Ipopt17RegisteredOptions16AddStringOption5ERKNSt7__cxx1112basic_stringIcSt11char_traitsIcESaIcEEES8_S8_S8_S8_S8_S8_S8_S8_S8_S8_S8_S8_S8_b(ptr noundef nonnull align 8 dereferenceable(128) %0, ptr noundef nonnull align 8 dereferenceable(32) %1, ptr noundef nonnull align 8 dereferenceable(32) %2, ptr noundef nonnull align 8 dereferenceable(32) %3, ptr noundef nonnull align 8 dereferenceable(32) %4, ptr noundef nonnull align 8 dereferenceable(32) %5, ptr noundef nonnull align 8 dereferenceable(32) %6, ptr noundef nonnull align 8 dereferenceable(32) %7, ptr noundef nonnull align 8 dereferenceable(32) %8, ptr noundef nonnull align 8 dereferenceable(32) %9, ptr noundef nonnull align 8 dereferenceable(32) %10, ptr noundef nonnull align 8 dereferenceable(32) %11, ptr noundef nonnull align 8 dereferenceable(32) %12, ptr noundef nonnull align 8 dereferenceable(32) %13, ptr noundef nonnull align 8 dereferenceable(32) %14, i1 noundef zeroext %15) unnamed_addr #4 align 2 personality ptr @__gxx_personality_v0 {
  %17 = alloca ptr, align 8
  %18 = alloca ptr, align 8
  %19 = alloca ptr, align 8
  %20 = alloca ptr, align 8
  %21 = alloca ptr, align 8
  %22 = alloca ptr, align 8
  %23 = alloca ptr, align 8
  %24 = alloca ptr, align 8
  %25 = alloca ptr, align 8
  %26 = alloca ptr, align 8
  %27 = alloca ptr, align 8
  %28 = alloca ptr, align 8
  %29 = alloca ptr, align 8
  %30 = alloca ptr, align 8
  %31 = alloca ptr, align 8
  %32 = alloca i8, align 1
  %33 = alloca %"class.Ipopt::SmartPtr.21", align 8
  %34 = alloca ptr, align 8
  %35 = alloca i32, align 4
  %36 = alloca i32, align 4
  store ptr %0, ptr %17, align 8, !tbaa !90
  store ptr %1, ptr %18, align 8, !tbaa !44
  store ptr %2, ptr %19, align 8, !tbaa !44
  store ptr %3, ptr %20, align 8, !tbaa !44
  store ptr %4, ptr %21, align 8, !tbaa !44
  store ptr %5, ptr %22, align 8, !tbaa !44
  store ptr %6, ptr %23, align 8, !tbaa !44
  store ptr %7, ptr %24, align 8, !tbaa !44
  store ptr %8, ptr %25, align 8, !tbaa !44
  store ptr %9, ptr %26, align 8, !tbaa !44
  store ptr %10, ptr %27, align 8, !tbaa !44
  store ptr %11, ptr %28, align 8, !tbaa !44
  store ptr %12, ptr %29, align 8, !tbaa !44
  store ptr %13, ptr %30, align 8, !tbaa !44
  store ptr %14, ptr %31, align 8, !tbaa !44
  %37 = zext i1 %15 to i8
  store i8 %37, ptr %32, align 1, !tbaa !63
  %38 = load ptr, ptr %17, align 8
  call void @llvm.lifetime.start.p0(i64 8, ptr %33) #3
  %39 = call noalias noundef nonnull ptr @_Znwm(i64 noundef 224) #20
  %40 = load ptr, ptr %18, align 8, !tbaa !44
  %41 = load ptr, ptr %19, align 8, !tbaa !44
  %42 = load ptr, ptr %31, align 8, !tbaa !44
  %43 = getelementptr inbounds nuw %"class.Ipopt::RegisteredOptions", ptr %38, i32 0, i32 4
  %44 = getelementptr inbounds nuw %"class.Ipopt::RegisteredOptions", ptr %38, i32 0, i32 3
  %45 = load i32, ptr %44, align 8, !tbaa !119
  %46 = add nsw i32 %45, 1
  store i32 %46, ptr %44, align 8, !tbaa !119
  %47 = load i8, ptr %32, align 1, !tbaa !63, !range !29, !noundef !30
  %48 = trunc i8 %47 to i1
  invoke void @_ZN5Ipopt16RegisteredOptionC2ERKNSt7__cxx1112basic_stringIcSt11char_traitsIcESaIcEEES8_S8_RKNS_8SmartPtrINS_18RegisteredCategoryEEEib(ptr noundef nonnull align 8 dereferenceable(220) %39, ptr noundef nonnull align 8 dereferenceable(32) %40, ptr noundef nonnull align 8 dereferenceable(32) %41, ptr noundef nonnull align 8 dereferenceable(32) %42, ptr noundef nonnull align 8 dereferenceable(8) %43, i32 noundef %45, i1 noundef zeroext %48)
          to label %49 unwind label %104

49:                                               ; preds = %16
  call void @_ZN5Ipopt8SmartPtrINS_16RegisteredOptionEEC2EPS1_(ptr noundef nonnull align 8 dereferenceable(8) %33, ptr noundef %39)
  %50 = invoke noundef ptr @_ZNK5Ipopt8SmartPtrINS_16RegisteredOptionEEptEv(ptr noundef nonnull align 8 dereferenceable(8) %33)
          to label %51 unwind label %108

51:                                               ; preds = %49
  call void @llvm.lifetime.start.p0(i64 4, ptr %36) #3
  store i32 2, ptr %36, align 4, !tbaa !132
  %52 = load ptr, ptr %50, align 8, !tbaa !31
  %53 = getelementptr inbounds ptr, ptr %52, i64 10
  %54 = load ptr, ptr %53, align 8
  invoke void %54(ptr noundef nonnull align 8 dereferenceable(220) %50, ptr noundef nonnull align 4 dereferenceable(4) %36)
          to label %55 unwind label %112

55:                                               ; preds = %51
  call void @llvm.lifetime.end.p0(i64 4, ptr %36) #3
  %56 = invoke noundef ptr @_ZNK5Ipopt8SmartPtrINS_16RegisteredOptionEEptEv(ptr noundef nonnull align 8 dereferenceable(8) %33)
          to label %57 unwind label %108

57:                                               ; preds = %55
  %58 = load ptr, ptr %20, align 8, !tbaa !44
  %59 = load ptr, ptr %56, align 8, !tbaa !31
  %60 = getelementptr inbounds ptr, ptr %59, i64 33
  %61 = load ptr, ptr %60, align 8
  invoke void %61(ptr noundef nonnull align 8 dereferenceable(220) %56, ptr noundef nonnull align 8 dereferenceable(32) %58)
          to label %62 unwind label %108

62:                                               ; preds = %57
  %63 = invoke noundef ptr @_ZNK5Ipopt8SmartPtrINS_16RegisteredOptionEEptEv(ptr noundef nonnull align 8 dereferenceable(8) %33)
          to label %64 unwind label %108

64:                                               ; preds = %62
  %65 = load ptr, ptr %21, align 8, !tbaa !44
  %66 = load ptr, ptr %22, align 8, !tbaa !44
  %67 = load ptr, ptr %63, align 8, !tbaa !31
  %68 = getelementptr inbounds ptr, ptr %67, i64 26
  %69 = load ptr, ptr %68, align 8
  invoke void %69(ptr noundef nonnull align 8 dereferenceable(220) %63, ptr noundef nonnull align 8 dereferenceable(32) %65, ptr noundef nonnull align 8 dereferenceable(32) %66)
          to label %70 unwind label %108

70:                                               ; preds = %64
  %71 = invoke noundef ptr @_ZNK5Ipopt8SmartPtrINS_16RegisteredOptionEEptEv(ptr noundef nonnull align 8 dereferenceable(8) %33)
          to label %72 unwind label %108

72:                                               ; preds = %70
  %73 = load ptr, ptr %23, align 8, !tbaa !44
  %74 = load ptr, ptr %24, align 8, !tbaa !44
  %75 = load ptr, ptr %71, align 8, !tbaa !31
  %76 = getelementptr inbounds ptr, ptr %75, i64 26
  %77 = load ptr, ptr %76, align 8
  invoke void %77(ptr noundef nonnull align 8 dereferenceable(220) %71, ptr noundef nonnull align 8 dereferenceable(32) %73, ptr noundef nonnull align 8 dereferenceable(32) %74)
          to label %78 unwind label %108

78:                                               ; preds = %72
  %79 = invoke noundef ptr @_ZNK5Ipopt8SmartPtrINS_16RegisteredOptionEEptEv(ptr noundef nonnull align 8 dereferenceable(8) %33)
          to label %80 unwind label %108

80:                                               ; preds = %78
  %81 = load ptr, ptr %25, align 8, !tbaa !44
  %82 = load ptr, ptr %26, align 8, !tbaa !44
  %83 = load ptr, ptr %79, align 8, !tbaa !31
  %84 = getelementptr inbounds ptr, ptr %83, i64 26
  %85 = load ptr, ptr %84, align 8
  invoke void %85(ptr noundef nonnull align 8 dereferenceable(220) %79, ptr noundef nonnull align 8 dereferenceable(32) %81, ptr noundef nonnull align 8 dereferenceable(32) %82)
          to label %86 unwind label %108

86:                                               ; preds = %80
  %87 = invoke noundef ptr @_ZNK5Ipopt8SmartPtrINS_16RegisteredOptionEEptEv(ptr noundef nonnull align 8 dereferenceable(8) %33)
          to label %88 unwind label %108

88:                                               ; preds = %86
  %89 = load ptr, ptr %27, align 8, !tbaa !44
  %90 = load ptr, ptr %28, align 8, !tbaa !44
  %91 = load ptr, ptr %87, align 8, !tbaa !31
  %92 = getelementptr inbounds ptr, ptr %91, i64 26
  %93 = load ptr, ptr %92, align 8
  invoke void %93(ptr noundef nonnull align 8 dereferenceable(220) %87, ptr noundef nonnull align 8 dereferenceable(32) %89, ptr noundef nonnull align 8 dereferenceable(32) %90)
          to label %94 unwind label %108

94:                                               ; preds = %88
  %95 = invoke noundef ptr @_ZNK5Ipopt8SmartPtrINS_16RegisteredOptionEEptEv(ptr noundef nonnull align 8 dereferenceable(8) %33)
          to label %96 unwind label %108

96:                                               ; preds = %94
  %97 = load ptr, ptr %29, align 8, !tbaa !44
  %98 = load ptr, ptr %30, align 8, !tbaa !44
  %99 = load ptr, ptr %95, align 8, !tbaa !31
  %100 = getelementptr inbounds ptr, ptr %99, i64 26
  %101 = load ptr, ptr %100, align 8
  invoke void %101(ptr noundef nonnull align 8 dereferenceable(220) %95, ptr noundef nonnull align 8 dereferenceable(32) %97, ptr noundef nonnull align 8 dereferenceable(32) %98)
          to label %102 unwind label %108

102:                                              ; preds = %96
  invoke void @_ZN5Ipopt17RegisteredOptions9AddOptionERKNS_8SmartPtrINS_16RegisteredOptionEEE(ptr noundef nonnull align 8 dereferenceable(128) %38, ptr noundef nonnull align 8 dereferenceable(8) %33)
          to label %103 unwind label %108

103:                                              ; preds = %102
  call void @_ZN5Ipopt8SmartPtrINS_16RegisteredOptionEED2Ev(ptr noundef nonnull align 8 dereferenceable(8) %33) #3
  call void @llvm.lifetime.end.p0(i64 8, ptr %33) #3
  ret void

104:                                              ; preds = %16
  %105 = landingpad { ptr, i32 }
          cleanup
  %106 = extractvalue { ptr, i32 } %105, 0
  store ptr %106, ptr %34, align 8
  %107 = extractvalue { ptr, i32 } %105, 1
  store i32 %107, ptr %35, align 4
  call void @_ZdlPvm(ptr noundef %39, i64 noundef 224) #21
  br label %117

108:                                              ; preds = %102, %96, %94, %88, %86, %80, %78, %72, %70, %64, %62, %57, %55, %49
  %109 = landingpad { ptr, i32 }
          cleanup
  %110 = extractvalue { ptr, i32 } %109, 0
  store ptr %110, ptr %34, align 8
  %111 = extractvalue { ptr, i32 } %109, 1
  store i32 %111, ptr %35, align 4
  br label %116

112:                                              ; preds = %51
  %113 = landingpad { ptr, i32 }
          cleanup
  %114 = extractvalue { ptr, i32 } %113, 0
  store ptr %114, ptr %34, align 8
  %115 = extractvalue { ptr, i32 } %113, 1
  store i32 %115, ptr %35, align 4
  call void @llvm.lifetime.end.p0(i64 4, ptr %36) #3
  br label %116

116:                                              ; preds = %112, %108
  call void @_ZN5Ipopt8SmartPtrINS_16RegisteredOptionEED2Ev(ptr noundef nonnull align 8 dereferenceable(8) %33) #3
  br label %117

117:                                              ; preds = %116, %104
  call void @llvm.lifetime.end.p0(i64 8, ptr %33) #3
  br label %118

118:                                              ; preds = %117
  %119 = load ptr, ptr %34, align 8
  %120 = load i32, ptr %35, align 4
  %121 = insertvalue { ptr, i32 } poison, ptr %119, 0
  %122 = insertvalue { ptr, i32 } %121, i32 %120, 1
  resume { ptr, i32 } %122
}