; Function Attrs: mustprogress uwtable
define void @_ZN5Ipopt17RegisteredOptions16AddStringOption5ERKNSt7__cxx1112basic_stringIcSt11char_traitsIcESaIcEEES8_S8_S8_S8_S8_S8_S8_S8_S8_S8_S8_S8_S8_b(ptr noundef nonnull align 8 dereferenceable(128) %0, ptr noundef nonnull align 8 dereferenceable(32) %1, ptr noundef nonnull align 8 dereferenceable(32) %2, ptr noundef nonnull align 8 dereferenceable(32) %3, ptr noundef nonnull align 8 dereferenceable(32) %4, ptr noundef nonnull align 8 dereferenceable(32) %5, ptr noundef nonnull align 8 dereferenceable(32) %6, ptr noundef nonnull align 8 dereferenceable(32) %7, ptr noundef nonnull align 8 dereferenceable(32) %8, ptr noundef nonnull align 8 dereferenceable(32) %9, ptr noundef nonnull align 8 dereferenceable(32) %10, ptr noundef nonnull align 8 dereferenceable(32) %11, ptr noundef nonnull align 8 dereferenceable(32) %12, ptr noundef nonnull align 8 dereferenceable(32) %13, ptr noundef nonnull align 8 dereferenceable(32) %14, i1 noundef zeroext %15) unnamed_addr #3 align 2 personality ptr @__gxx_personality_v0 {
  %17 = alloca %"class.Ipopt::SmartPtr.21", align 8
  %18 = alloca i32, align 4
  call void @llvm.lifetime.start.p0(i64 8, ptr nonnull %17) #23
  %19 = tail call noalias noundef nonnull dereferenceable(224) ptr @_Znwm(i64 noundef 224) #27
  %20 = getelementptr inbounds nuw i8, ptr %0, i64 120
  %21 = getelementptr inbounds nuw i8, ptr %0, i64 112
  %22 = load i32, ptr %21, align 8, !tbaa !86
  %23 = add nsw i32 %22, 1
  store i32 %23, ptr %21, align 8, !tbaa !86
  invoke void @_ZN5Ipopt16RegisteredOptionC2ERKNSt7__cxx1112basic_stringIcSt11char_traitsIcESaIcEEES8_S8_RKNS_8SmartPtrINS_18RegisteredCategoryEEEib(ptr noundef nonnull align 8 dereferenceable(220) %19, ptr noundef nonnull align 8 dereferenceable(32) %1, ptr noundef nonnull align 8 dereferenceable(32) %2, ptr noundef nonnull align 8 dereferenceable(32) %14, ptr noundef nonnull align 8 dereferenceable(8) %20, i32 noundef %22, i1 noundef zeroext %15)
          to label %24 unwind label %64

24:                                               ; preds = %16
  %25 = getelementptr inbounds nuw i8, ptr %19, i64 8
  %26 = load i32, ptr %25, align 8, !tbaa !59
  %27 = add nsw i32 %26, 1
  store i32 %27, ptr %25, align 8, !tbaa !59
  store ptr %19, ptr %17, align 8, !tbaa !80
  call void @llvm.lifetime.start.p0(i64 4, ptr nonnull %18) #23
  store i32 2, ptr %18, align 4, !tbaa !96
  %28 = load ptr, ptr %19, align 8, !tbaa !32
  %29 = getelementptr inbounds nuw i8, ptr %28, i64 80
  %30 = load ptr, ptr %29, align 8
  invoke void %30(ptr noundef nonnull align 8 dereferenceable(220) %19, ptr noundef nonnull align 4 dereferenceable(4) %18)
          to label %31 unwind label %68

31:                                               ; preds = %24
  call void @llvm.lifetime.end.p0(i64 4, ptr nonnull %18) #23
  %32 = load ptr, ptr %19, align 8, !tbaa !32
  %33 = getelementptr inbounds nuw i8, ptr %32, i64 264
  %34 = load ptr, ptr %33, align 8
  invoke void %34(ptr noundef nonnull align 8 dereferenceable(220) %19, ptr noundef nonnull align 8 dereferenceable(32) %3)
          to label %35 unwind label %66

35:                                               ; preds = %31
  %36 = load ptr, ptr %19, align 8, !tbaa !32
  %37 = getelementptr inbounds nuw i8, ptr %36, i64 208
  %38 = load ptr, ptr %37, align 8
  invoke void %38(ptr noundef nonnull align 8 dereferenceable(220) %19, ptr noundef nonnull align 8 dereferenceable(32) %4, ptr noundef nonnull align 8 dereferenceable(32) %5)
          to label %39 unwind label %66

39:                                               ; preds = %35
  %40 = load ptr, ptr %19, align 8, !tbaa !32
  %41 = getelementptr inbounds nuw i8, ptr %40, i64 208
  %42 = load ptr, ptr %41, align 8
  invoke void %42(ptr noundef nonnull align 8 dereferenceable(220) %19, ptr noundef nonnull align 8 dereferenceable(32) %6, ptr noundef nonnull align 8 dereferenceable(32) %7)
          to label %43 unwind label %66

43:                                               ; preds = %39
  %44 = load ptr, ptr %19, align 8, !tbaa !32
  %45 = getelementptr inbounds nuw i8, ptr %44, i64 208
  %46 = load ptr, ptr %45, align 8
  invoke void %46(ptr noundef nonnull align 8 dereferenceable(220) %19, ptr noundef nonnull align 8 dereferenceable(32) %8, ptr noundef nonnull align 8 dereferenceable(32) %9)
          to label %47 unwind label %66

47:                                               ; preds = %43
  %48 = load ptr, ptr %19, align 8, !tbaa !32
  %49 = getelementptr inbounds nuw i8, ptr %48, i64 208
  %50 = load ptr, ptr %49, align 8
  invoke void %50(ptr noundef nonnull align 8 dereferenceable(220) %19, ptr noundef nonnull align 8 dereferenceable(32) %10, ptr noundef nonnull align 8 dereferenceable(32) %11)
          to label %51 unwind label %66

51:                                               ; preds = %47
  %52 = load ptr, ptr %19, align 8, !tbaa !32
  %53 = getelementptr inbounds nuw i8, ptr %52, i64 208
  %54 = load ptr, ptr %53, align 8
  invoke void %54(ptr noundef nonnull align 8 dereferenceable(220) %19, ptr noundef nonnull align 8 dereferenceable(32) %12, ptr noundef nonnull align 8 dereferenceable(32) %13)
          to label %55 unwind label %66

55:                                               ; preds = %51
  invoke void @_ZN5Ipopt17RegisteredOptions9AddOptionERKNS_8SmartPtrINS_16RegisteredOptionEEE(ptr noundef nonnull align 8 dereferenceable(128) %0, ptr noundef nonnull align 8 dereferenceable(8) %17)
          to label %56 unwind label %66

56:                                               ; preds = %55
  %57 = load i32, ptr %25, align 8, !tbaa !59
  %58 = add nsw i32 %57, -1
  store i32 %58, ptr %25, align 8, !tbaa !59
  %59 = icmp eq i32 %58, 0
  br i1 %59, label %60, label %_ZN5Ipopt8SmartPtrINS_16RegisteredOptionEED2Ev.exit

60:                                               ; preds = %56
  %61 = load ptr, ptr %19, align 8, !tbaa !32
  %62 = getelementptr inbounds nuw i8, ptr %61, i64 8
  %63 = load ptr, ptr %62, align 8
  call void %63(ptr noundef nonnull align 8 dereferenceable(220) %19) #23
  br label %_ZN5Ipopt8SmartPtrINS_16RegisteredOptionEED2Ev.exit

_ZN5Ipopt8SmartPtrINS_16RegisteredOptionEED2Ev.exit: ; preds = %56, %60
  call void @llvm.lifetime.end.p0(i64 8, ptr nonnull %17) #23
  ret void

64:                                               ; preds = %16
  %65 = landingpad { ptr, i32 }
          cleanup
  tail call void @_ZdlPvm(ptr noundef nonnull %19, i64 noundef 224) #24
  br label %_ZN5Ipopt8SmartPtrINS_16RegisteredOptionEED2Ev.exit22

66:                                               ; preds = %55, %51, %47, %43, %39, %35, %31
  %67 = landingpad { ptr, i32 }
          cleanup
  br label %70

68:                                               ; preds = %24
  %69 = landingpad { ptr, i32 }
          cleanup
  call void @llvm.lifetime.end.p0(i64 4, ptr nonnull %18) #23
  br label %70

70:                                               ; preds = %66, %68
  %.pn = phi { ptr, i32 } [ %67, %66 ], [ %69, %68 ]
  %71 = load i32, ptr %25, align 8, !tbaa !59
  %72 = add nsw i32 %71, -1
  store i32 %72, ptr %25, align 8, !tbaa !59
  %73 = icmp eq i32 %72, 0
  br i1 %73, label %74, label %_ZN5Ipopt8SmartPtrINS_16RegisteredOptionEED2Ev.exit22

74:                                               ; preds = %70
  %75 = load ptr, ptr %19, align 8, !tbaa !32
  %76 = getelementptr inbounds nuw i8, ptr %75, i64 8
  %77 = load ptr, ptr %76, align 8
  call void %77(ptr noundef nonnull align 8 dereferenceable(220) %19) #23
  br label %_ZN5Ipopt8SmartPtrINS_16RegisteredOptionEED2Ev.exit22

_ZN5Ipopt8SmartPtrINS_16RegisteredOptionEED2Ev.exit22: ; preds = %74, %70, %64
  %.pn.pn = phi { ptr, i32 } [ %65, %64 ], [ %.pn, %70 ], [ %.pn, %74 ]
  call void @llvm.lifetime.end.p0(i64 8, ptr nonnull %17) #23
  resume { ptr, i32 } %.pn.pn
}